; Function Attrs: nofree nounwind uwtable
define noalias noundef ptr @Acec_MapXorIns(ptr noundef readonly captures(none) %0, ptr noundef readonly captures(none) %1) local_unnamed_addr #3 {
  %3 = getelementptr i8, ptr %0, i64 24
  %.val = load i32, ptr %3, align 8, !tbaa !3
  %4 = ashr i32 %.val, 5
  %5 = and i32 %.val, 31
  %6 = icmp ne i32 %5, 0
  %7 = zext i1 %6 to i32
  %8 = add nsw i32 %4, %7
  %9 = tail call noalias dereferenceable_or_null(16) ptr @malloc(i64 noundef 16) #20
  %10 = shl nsw i32 %8, 5
  store i32 %10, ptr %9, align 8, !tbaa !39
  %.not.i.i = icmp eq i32 %8, 0
  br i1 %.not.i.i, label %Vec_BitStart.exit, label %11

11:                                               ; preds = %2
  %12 = sext i32 %8 to i64
  %13 = shl nsw i64 %12, 2
  %14 = tail call noalias ptr @malloc(i64 noundef %13) #20
  br label %Vec_BitStart.exit

Vec_BitStart.exit:                                ; preds = %2, %11
  %.pre-phi8.i = phi i64 [ %13, %11 ], [ 0, %2 ]
  %15 = phi ptr [ %14, %11 ], [ null, %2 ]
  %16 = getelementptr inbounds nuw i8, ptr %9, i64 4
  %17 = getelementptr inbounds nuw i8, ptr %9, i64 8
  store ptr %15, ptr %17, align 8, !tbaa !41
  store i32 %10, ptr %16, align 4, !tbaa !42
  tail call void @llvm.memset.p0.i64(ptr align 4 %15, i8 0, i64 %.pre-phi8.i, i1 false)
  %18 = getelementptr i8, ptr %1, i64 4
  %.val14 = load i32, ptr %18, align 4, !tbaa !28
  %19 = icmp sgt i32 %.val14, 0
  br i1 %19, label %.lr.ph, label %._crit_edge

.lr.ph:                                           ; preds = %Vec_BitStart.exit
  %20 = getelementptr i8, ptr %1, i64 8
  %.val17 = load ptr, ptr %20, align 8, !tbaa !29
  %21 = add nsw i32 %.val14, -1
  %22 = lshr i32 %21, 2
  %23 = add nuw nsw i32 %22, 1
  %wide.trip.count = zext nneg i32 %23 to i64
  br label %24

24:                                               ; preds = %.lr.ph, %24
  %indvars.iv22 = phi i64 [ 0, %.lr.ph ], [ %indvars.iv.next23, %24 ]
  %indvars.iv = phi i64 [ 0, %.lr.ph ], [ %indvars.iv.next, %24 ]
  %25 = or disjoint i64 %indvars.iv, 1
  %26 = getelementptr inbounds nuw i32, ptr %.val17, i64 %25
  %27 = load i32, ptr %26, align 4, !tbaa !30
  %28 = and i32 %27, 31
  %29 = shl nuw i32 1, %28
  %30 = ashr i32 %27, 5
  %31 = sext i32 %30 to i64
  %32 = getelementptr inbounds i32, ptr %15, i64 %31
  %33 = load i32, ptr %32, align 4, !tbaa !30
  %34 = or i32 %29, %33
  store i32 %34, ptr %32, align 4, !tbaa !30
  %35 = or disjoint i64 %indvars.iv, 2
  %36 = getelementptr inbounds nuw i32, ptr %.val17, i64 %35
  %37 = load i32, ptr %36, align 4, !tbaa !30
  %38 = and i32 %37, 31
  %39 = shl nuw i32 1, %38
  %40 = ashr i32 %37, 5
  %41 = sext i32 %40 to i64
  %42 = getelementptr inbounds i32, ptr %15, i64 %41
  %43 = load i32, ptr %42, align 4, !tbaa !30
  %44 = or i32 %39, %43
  store i32 %44, ptr %42, align 4, !tbaa !30
  %45 = or disjoint i64 %indvars.iv, 3
  %46 = getelementptr inbounds nuw i32, ptr %.val17, i64 %45
  %47 = load i32, ptr %46, align 4, !tbaa !30
  %48 = and i32 %47, 31
  %49 = shl nuw i32 1, %48
  %50 = ashr i32 %47, 5
  %51 = sext i32 %50 to i64
  %52 = getelementptr inbounds i32, ptr %15, i64 %51
  %53 = load i32, ptr %52, align 4, !tbaa !30
  %54 = or i32 %49, %53
  store i32 %54, ptr %52, align 4, !tbaa !30
  %indvars.iv.next23 = add nuw nsw i64 %indvars.iv22, 1
  %indvars.iv.next = add nuw nsw i64 %indvars.iv, 4
  %exitcond.not = icmp eq i64 %indvars.iv.next23, %wide.trip.count
  br i1 %exitcond.not, label %._crit_edge, label %24, !llvm.loop !47

._crit_edge:                                      ; preds = %24, %Vec_BitStart.exit
  ret ptr %9
}